; ModuleID = '16/409.c'
source_filename = "16/409.c"
target datalayout = "e-m:e-p270:32:32-p271:32:32-p272:64:64-i64:64-f80:128-n8:16:32:64-S128"
target triple = "x86_64-pc-linux-gnu"

@.str = private unnamed_addr constant [3 x i8] c"%d\00", align 1
@.str.1 = private unnamed_addr constant [11 x i8] c"%d%d%d%d%d\00", align 1
@.str.2 = private unnamed_addr constant [9 x i8] c"%d%d%d%d\00", align 1
@.str.3 = private unnamed_addr constant [7 x i8] c"%d%d%d\00", align 1
@.str.4 = private unnamed_addr constant [5 x i8] c"%d%d\00", align 1

; Function Attrs: noinline nounwind uwtable
define dso_local void @main() #0 {
  %1 = alloca i32, align 4
  %2 = alloca i32, align 4
  %3 = alloca i32, align 4
  %4 = alloca i32, align 4
  %5 = alloca i32, align 4
  %6 = alloca i32, align 4
  %7 = call i32 (i8*, ...) @__isoc99_scanf(i8* getelementptr inbounds ([3 x i8], [3 x i8]* @.str, i64 0, i64 0), i32* %1)
  %8 = load i32, i32* %1, align 4
  %9 = sdiv i32 %8, 10000
  store i32 %9, i32* %2, align 4
  %10 = load i32, i32* %1, align 4
  %11 = srem i32 %10, 10000
  %12 = sdiv i32 %11, 1000
  store i32 %12, i32* %3, align 4
  %13 = load i32, i32* %1, align 4
  %14 = srem i32 %13, 1000
  %15 = sdiv i32 %14, 100
  store i32 %15, i32* %4, align 4
  %16 = load i32, i32* %1, align 4
  %17 = srem i32 %16, 100
  %18 = sdiv i32 %17, 10
  store i32 %18, i32* %5, align 4
  %19 = load i32, i32* %1, align 4
  %20 = srem i32 %19, 10
  store i32 %20, i32* %6, align 4
  %21 = load i32, i32* %1, align 4
  %22 = sdiv i32 %21, 10000
  %23 = icmp eq i32 %22, 1
  br i1 %23, label %24, label %31

24:                                               ; preds = %0
  %25 = load i32, i32* %6, align 4
  %26 = load i32, i32* %5, align 4
  %27 = load i32, i32* %4, align 4
  %28 = load i32, i32* %3, align 4
  %29 = load i32, i32* %2, align 4
  %30 = call i32 (i8*, ...) @printf(i8* getelementptr inbounds ([11 x i8], [11 x i8]* @.str.1, i64 0, i64 0), i32 %25, i32 %26, i32 %27, i32 %28, i32 %29)
  br label %64

31:                                               ; preds = %0
  %32 = load i32, i32* %1, align 4
  %33 = sdiv i32 %32, 1000
  %34 = icmp ne i32 %33, 0
  br i1 %34, label %35, label %41

35:                                               ; preds = %31
  %36 = load i32, i32* %6, align 4
  %37 = load i32, i32* %5, align 4
  %38 = load i32, i32* %4, align 4
  %39 = load i32, i32* %3, align 4
  %40 = call i32 (i8*, ...) @printf(i8* getelementptr inbounds ([9 x i8], [9 x i8]* @.str.2, i64 0, i64 0), i32 %36, i32 %37, i32 %38, i32 %39)
  br label %63

41:                                               ; preds = %31
  %42 = load i32, i32* %1, align 4
  %43 = sdiv i32 %42, 100
  %44 = icmp ne i32 %43, 0
  br i1 %44, label %45, label %50

45:                                               ; preds = %41
  %46 = load i32, i32* %6, align 4
  %47 = load i32, i32* %5, align 4
  %48 = load i32, i32* %4, align 4
  %49 = call i32 (i8*, ...) @printf(i8* getelementptr inbounds ([7 x i8], [7 x i8]* @.str.3, i64 0, i64 0), i32 %46, i32 %47, i32 %48)
  br label %62

50:                                               ; preds = %41
  %51 = load i32, i32* %1, align 4
  %52 = sdiv i32 %51, 10
  %53 = icmp ne i32 %52, 0
  br i1 %53, label %54, label %58

54:                                               ; preds = %50
  %55 = load i32, i32* %6, align 4
  %56 = load i32, i32* %5, align 4
  %57 = call i32 (i8*, ...) @printf(i8* getelementptr inbounds ([5 x i8], [5 x i8]* @.str.4, i64 0, i64 0), i32 %55, i32 %56)
  br label %61

58:                                               ; preds = %50
  %59 = load i32, i32* %6, align 4
  %60 = call i32 (i8*, ...) @printf(i8* getelementptr inbounds ([3 x i8], [3 x i8]* @.str, i64 0, i64 0), i32 %59)
  br label %61

61:                                               ; preds = %58, %54
  br label %62

62:                                               ; preds = %61, %45
  br label %63

63:                                               ; preds = %62, %35
  br label %64

64:                                               ; preds = %63, %24
  ret void
}

declare dso_local i32 @__isoc99_scanf(i8*, ...) #1

declare dso_local i32 @printf(i8*, ...) #1


!llvm.module.flags = !{!0}
!llvm.ident = !{!1}

!0 = !{i32 1, !"wchar_size", i32 4}
!1 = !{!"clang version 10.0.0-4ubuntu1 "}
